; ModuleID = '24/1135.c'
source_filename = "24/1135.c"
target datalayout = "e-m:e-p270:32:32-p271:32:32-p272:64:64-i64:64-f80:128-n8:16:32:64-S128"
target triple = "x86_64-pc-linux-gnu"

@.str = private unnamed_addr constant [3 x i8] c"%c\00", align 1
@.str.1 = private unnamed_addr constant [2 x i8] c"\0A\00", align 1

; Function Attrs: noinline nounwind uwtable
define dso_local i32 @main() #0 {
  %1 = alloca i32, align 4
  %2 = alloca [100 x i8], align 16
  %3 = alloca [100 x i32], align 16
  %4 = alloca i32, align 4
  %5 = alloca i32, align 4
  %6 = alloca i32, align 4
  %7 = alloca i32, align 4
  %8 = alloca i32, align 4
  %9 = alloca i32, align 4
  %10 = alloca i32, align 4
  %11 = alloca i32, align 4
  %12 = alloca i32, align 4
  store i32 0, i32* %1, align 4
  %13 = getelementptr inbounds [100 x i8], [100 x i8]* %2, i64 0, i64 0
  %14 = call i32 (i8*, ...) bitcast (i32 (...)* @gets to i32 (i8*, ...)*)(i8* %13)
  store i32 0, i32* %6, align 4
  %15 = getelementptr inbounds [100 x i8], [100 x i8]* %2, i64 0, i64 0
  %16 = call i64 @strlen(i8* %15) #3
  %17 = trunc i64 %16 to i32
  store i32 %17, i32* %7, align 4
  store i32 0, i32* %4, align 4
  br label %18

18:                                               ; preds = %38, %0
  %19 = load i32, i32* %4, align 4
  %20 = load i32, i32* %7, align 4
  %21 = icmp slt i32 %19, %20
  br i1 %21, label %22, label %41

22:                                               ; preds = %18
  %23 = load i32, i32* %4, align 4
  %24 = sext i32 %23 to i64
  %25 = getelementptr inbounds [100 x i8], [100 x i8]* %2, i64 0, i64 %24
  %26 = load i8, i8* %25, align 1
  %27 = sext i8 %26 to i32
  %28 = icmp eq i32 %27, 32
  br i1 %28, label %29, label %37

29:                                               ; preds = %22
  %30 = load i32, i32* %4, align 4
  %31 = load i32, i32* %6, align 4
  %32 = add nsw i32 %31, 1
  %33 = sext i32 %32 to i64
  %34 = getelementptr inbounds [100 x i32], [100 x i32]* %3, i64 0, i64 %33
  store i32 %30, i32* %34, align 4
  %35 = load i32, i32* %6, align 4
  %36 = add nsw i32 %35, 1
  store i32 %36, i32* %6, align 4
  br label %37

37:                                               ; preds = %29, %22
  br label %38

38:                                               ; preds = %37
  %39 = load i32, i32* %4, align 4
  %40 = add nsw i32 %39, 1
  store i32 %40, i32* %4, align 4
  br label %18

41:                                               ; preds = %18
  %42 = load i32, i32* %4, align 4
  %43 = load i32, i32* %6, align 4
  %44 = add nsw i32 %43, 1
  %45 = sext i32 %44 to i64
  %46 = getelementptr inbounds [100 x i32], [100 x i32]* %3, i64 0, i64 %45
  store i32 %42, i32* %46, align 4
  %47 = getelementptr inbounds [100 x i32], [100 x i32]* %3, i64 0, i64 0
  store i32 -1, i32* %47, align 16
  store i32 0, i32* %9, align 4
  store i32 50, i32* %10, align 4
  store i32 1, i32* %4, align 4
  br label %48

48:                                               ; preds = %79, %41
  %49 = load i32, i32* %4, align 4
  %50 = load i32, i32* %6, align 4
  %51 = add nsw i32 %50, 1
  %52 = icmp sle i32 %49, %51
  br i1 %52, label %53, label %82

53:                                               ; preds = %48
  %54 = load i32, i32* %4, align 4
  %55 = sext i32 %54 to i64
  %56 = getelementptr inbounds [100 x i32], [100 x i32]* %3, i64 0, i64 %55
  %57 = load i32, i32* %56, align 4
  %58 = load i32, i32* %4, align 4
  %59 = sub nsw i32 %58, 1
  %60 = sext i32 %59 to i64
  %61 = getelementptr inbounds [100 x i32], [100 x i32]* %3, i64 0, i64 %60
  %62 = load i32, i32* %61, align 4
  %63 = sub nsw i32 %57, %62
  %64 = sub nsw i32 %63, 1
  store i32 %64, i32* %8, align 4
  %65 = load i32, i32* %8, align 4
  %66 = load i32, i32* %9, align 4
  %67 = icmp sgt i32 %65, %66
  br i1 %67, label %68, label %71

68:                                               ; preds = %53
  %69 = load i32, i32* %8, align 4
  store i32 %69, i32* %9, align 4
  %70 = load i32, i32* %4, align 4
  store i32 %70, i32* %11, align 4
  br label %71

71:                                               ; preds = %68, %53
  %72 = load i32, i32* %8, align 4
  %73 = load i32, i32* %10, align 4
  %74 = icmp slt i32 %72, %73
  br i1 %74, label %75, label %78

75:                                               ; preds = %71
  %76 = load i32, i32* %8, align 4
  store i32 %76, i32* %10, align 4
  %77 = load i32, i32* %4, align 4
  store i32 %77, i32* %12, align 4
  br label %78

78:                                               ; preds = %75, %71
  br label %79

79:                                               ; preds = %78
  %80 = load i32, i32* %4, align 4
  %81 = add nsw i32 %80, 1
  store i32 %81, i32* %4, align 4
  br label %48

82:                                               ; preds = %48
  %83 = load i32, i32* %11, align 4
  %84 = sub nsw i32 %83, 1
  %85 = sext i32 %84 to i64
  %86 = getelementptr inbounds [100 x i32], [100 x i32]* %3, i64 0, i64 %85
  %87 = load i32, i32* %86, align 4
  %88 = add nsw i32 %87, 1
  store i32 %88, i32* %5, align 4
  br label %89

89:                                               ; preds = %103, %82
  %90 = load i32, i32* %5, align 4
  %91 = load i32, i32* %11, align 4
  %92 = sext i32 %91 to i64
  %93 = getelementptr inbounds [100 x i32], [100 x i32]* %3, i64 0, i64 %92
  %94 = load i32, i32* %93, align 4
  %95 = icmp slt i32 %90, %94
  br i1 %95, label %96, label %106

96:                                               ; preds = %89
  %97 = load i32, i32* %5, align 4
  %98 = sext i32 %97 to i64
  %99 = getelementptr inbounds [100 x i8], [100 x i8]* %2, i64 0, i64 %98
  %100 = load i8, i8* %99, align 1
  %101 = sext i8 %100 to i32
  %102 = call i32 (i8*, ...) @printf(i8* getelementptr inbounds ([3 x i8], [3 x i8]* @.str, i64 0, i64 0), i32 %101)
  br label %103

103:                                              ; preds = %96
  %104 = load i32, i32* %5, align 4
  %105 = add nsw i32 %104, 1
  store i32 %105, i32* %5, align 4
  br label %89

106:                                              ; preds = %89
  %107 = call i32 (i8*, ...) @printf(i8* getelementptr inbounds ([2 x i8], [2 x i8]* @.str.1, i64 0, i64 0))
  %108 = load i32, i32* %12, align 4
  %109 = sub nsw i32 %108, 1
  %110 = sext i32 %109 to i64
  %111 = getelementptr inbounds [100 x i32], [100 x i32]* %3, i64 0, i64 %110
  %112 = load i32, i32* %111, align 4
  %113 = add nsw i32 %112, 1
  store i32 %113, i32* %5, align 4
  br label %114

114:                                              ; preds = %128, %106
  %115 = load i32, i32* %5, align 4
  %116 = load i32, i32* %12, align 4
  %117 = sext i32 %116 to i64
  %118 = getelementptr inbounds [100 x i32], [100 x i32]* %3, i64 0, i64 %117
  %119 = load i32, i32* %118, align 4
  %120 = icmp slt i32 %115, %119
  br i1 %120, label %121, label %131

121:                                              ; preds = %114
  %122 = load i32, i32* %5, align 4
  %123 = sext i32 %122 to i64
  %124 = getelementptr inbounds [100 x i8], [100 x i8]* %2, i64 0, i64 %123
  %125 = load i8, i8* %124, align 1
  %126 = sext i8 %125 to i32
  %127 = call i32 (i8*, ...) @printf(i8* getelementptr inbounds ([3 x i8], [3 x i8]* @.str, i64 0, i64 0), i32 %126)
  br label %128

128:                                              ; preds = %121
  %129 = load i32, i32* %5, align 4
  %130 = add nsw i32 %129, 1
  store i32 %130, i32* %5, align 4
  br label %114

131:                                              ; preds = %114
  ret i32 0
}

declare dso_local i32 @gets(...) #1

; Function Attrs: nounwind readonly
declare dso_local i64 @strlen(i8*) #2

declare dso_local i32 @printf(i8*, ...) #1


!llvm.module.flags = !{!0}
!llvm.ident = !{!1}

!0 = !{i32 1, !"wchar_size", i32 4}
!1 = !{!"clang version 10.0.0-4ubuntu1 "}
